(dp0
I0
(lp1
I9
aI13
aI18
aI22
aI37
aI39
aI44
aI54
aI59
aI64
aI66
aI77
aI85
aI105
aI115
aI119
aI121
aI125
aI131
aI133
aI136
aI140
aI143
aI152
aI156
aI164
aI170
aI171
aI182
aI184
aI192
aI193
aI202
aI205
aI211
aI212
aI213
aI216
aI221
aI228
aI231
aI232
aI242
aI244
aI245
aI252
aI255
aI256
aI259
aI267
aI275
aI277
aI279
aI286
aI294
aI295
aI300
aI315
aI318
aI320
aI321
aI323
aI328
aI334
aI336
aI337
aI342
aI351
aI361
aI362
aI366
aI370
aI376
aI379
aI381
aI396
aI398
aI407
aI411
aI414
aI420
aI422
aI426
aI438
aI442
aI446
aI453
aI454
aI457
aI458
aI465
aI467
aI475
aI479
asI1
(lp2
I33
aI40
aI52
aI106
aI108
aI112
aI120
aI132
aI137
aI153
aI158
aI178
aI199
aI237
aI251
aI270
aI278
aI280
aI281
aI285
aI308
aI324
aI338
aI365
aI383
aI405
aI410
aI450
aI452
aI459
aI462
aI463
aI473
asI2
(lp3
I6
aI7
aI20
aI27
aI38
aI53
aI69
aI78
aI79
aI88
aI100
aI102
aI117
aI118
aI122
aI129
aI138
aI139
aI145
aI147
aI148
aI149
aI175
aI196
aI198
aI200
aI201
aI208
aI225
aI235
aI236
aI261
aI271
aI272
aI276
aI282
aI283
aI284
aI288
aI289
aI296
aI303
aI305
aI314
aI317
aI319
aI322
aI333
aI345
aI347
aI354
aI356
aI373
aI374
aI377
aI390
aI391
aI397
aI401
aI408
aI409
aI419
aI434
aI461
aI469
asI3
(lp4
I3
aI4
aI25
aI34
aI42
aI43
aI56
aI58
aI60
aI61
aI68
aI76
aI89
aI91
aI93
aI101
aI109
aI113
aI130
aI151
aI159
aI168
aI186
aI188
aI189
aI195
aI207
aI209
aI219
aI238
aI239
aI258
aI263
aI268
aI273
aI291
aI298
aI299
aI306
aI309
aI310
aI311
aI312
aI316
aI341
aI343
aI350
aI368
aI372
aI380
aI402
aI421
aI430
aI433
aI439
aI440
aI441
aI443
aI449
aI455
aI456
aI460
aI471
aI476
aI478
asI4
(lp5
I8
aI16
aI19
aI23
aI29
aI36
aI46
aI48
aI65
aI73
aI92
aI123
aI124
aI126
aI134
aI135
aI157
aI160
aI166
aI174
aI183
aI185
aI190
aI194
aI203
aI204
aI215
aI222
aI224
aI230
aI233
aI243
aI247
aI274
aI287
aI304
aI330
aI335
aI344
aI349
aI360
aI363
aI369
aI371
aI388
aI399
aI416
aI423
aI427
aI429
aI432
aI445
aI470
aI472
asI5
(lp6
I11
aI21
aI24
aI28
aI30
aI41
aI75
aI83
aI87
aI94
aI104
aI142
aI161
aI165
aI172
aI177
aI191
aI220
aI227
aI240
aI253
aI254
aI264
aI265
aI266
aI269
aI302
aI327
aI329
aI331
aI332
aI353
aI389
aI392
aI412
aI415
aI425
aI431
aI466
asI6
(lp7
I5
aI12
aI26
aI63
aI70
aI84
aI86
aI95
aI98
aI99
aI103
aI107
aI110
aI116
aI144
aI146
aI150
aI167
aI176
aI181
aI187
aI210
aI214
aI217
aI226
aI257
aI260
aI290
aI301
aI326
aI352
aI355
aI357
aI359
aI375
aI386
aI400
aI406
aI413
aI418
aI424
aI435
aI437
aI448
aI451
aI474
aI477
asI7
(lp8
I0
aI1
aI2
aI10
aI14
aI15
aI17
aI31
aI32
aI35
aI45
aI47
aI49
aI50
aI51
aI55
aI57
aI62
aI67
aI71
aI72
aI74
aI80
aI81
aI82
aI90
aI96
aI97
aI111
aI114
aI127
aI128
aI141
aI154
aI155
aI162
aI163
aI169
aI173
aI179
aI180
aI197
aI206
aI218
aI223
aI229
aI234
aI241
aI246
aI248
aI249
aI250
aI262
aI292
aI293
aI297
aI307
aI313
aI325
aI339
aI340
aI346
aI348
aI358
aI364
aI367
aI378
aI382
aI384
aI385
aI387
aI393
aI394
aI395
aI403
aI404
aI417
aI428
aI436
aI444
aI447
aI464
aI468
as.